(dp0
S'sanhe.hu'
p1
(dp2
S'pwd'
p3
S'ba3253876aed6bc22d4a6ff53d8406c6ad864195ed144ab5c87621b6c233b548baeae6956df346ec8c17f5ea10f35ee3cbc514797ed7ddd3145464e2a0bab413'
p4
sS'email'
p5
S'sanhe.hu@theeagleforce.net'
p6
ss.